target datalayout = "e-m:e-p270:32:32-p271:32:32-p272:64:64-i64:64-i128:128-f80:128-n8:16:32:64-S128"
target triple = "x86_64-pc-linux-gnu"

%class.QString = type { ptr }
%class.RichDynamicFloat = type { %class.RichParameter, float, float }
%class.RichParameter = type { ptr, %class.QString, ptr, %class.QString, %class.QString, i8, i8, %class.QString }

; Function Attrs: mustprogress uwtable
define linkonce_odr void @_ZN16RichDynamicFloatC2ERKS_(ptr noundef nonnull align 8 dereferenceable(64) %0, ptr noundef nonnull align 8 dereferenceable(64) %1) unnamed_addr #1 comdat align 2 {
  %3 = alloca ptr, align 8
  %4 = alloca ptr, align 8
  store ptr %0, ptr %3, align 8
  store ptr %1, ptr %4, align 8
  %5 = load ptr, ptr %3, align 8
  %6 = load ptr, ptr %4, align 8
  call void @_ZN13RichParameterC2ERKS_(ptr noundef nonnull align 8 dereferenceable(56) %5, ptr noundef nonnull align 8 dereferenceable(56) %6)
  store ptr getelementptr inbounds ({ [8 x ptr] }, ptr @_ZTV16RichDynamicFloat, i32 0, i32 0, i32 2), ptr %5, align 8
  %7 = getelementptr inbounds %class.RichDynamicFloat, ptr %5, i32 0, i32 1
  %8 = load ptr, ptr %4, align 8
  %9 = getelementptr inbounds %class.RichDynamicFloat, ptr %8, i32 0, i32 1
  call void @llvm.memcpy.p0.p0.i64(ptr align 8 %7, ptr align 8 %9, i64 8, i1 false)
  ret void
}

; Function Attrs: mustprogress uwtable
define noundef ptr @_ZNK16RichDynamicFloat5cloneEv(ptr noundef nonnull align 8 dereferenceable(64) %0) unnamed_addr #1 align 2 personality ptr @__gxx_personality_v0 {
  %2 = alloca ptr, align 8
  %3 = alloca ptr, align 8
  %4 = alloca i32, align 4
  store ptr %0, ptr %2, align 8
  %5 = load ptr, ptr %2, align 8
  %6 = call noalias noundef nonnull ptr @_Znwm(i64 noundef 64) #13
  invoke void @_ZN16RichDynamicFloatC2ERKS_(ptr noundef nonnull align 8 dereferenceable(64) %6, ptr noundef nonnull align 8 dereferenceable(64) %5)
          to label %7 unwind label %8

7:                                                ; preds = %1
  ret ptr %6

8:                                                ; preds = %1
  %9 = landingpad { ptr, i32 }
          cleanup
  %10 = extractvalue { ptr, i32 } %9, 0
  store ptr %10, ptr %3, align 8
  %11 = extractvalue { ptr, i32 } %9, 1
  store i32 %11, ptr %4, align 4
  call void @_ZdlPv(ptr noundef %6) #12
  br label %12

12:                                               ; preds = %8
  %13 = load ptr, ptr %3, align 8
  %14 = load i32, ptr %4, align 4
  %15 = insertvalue { ptr, i32 } poison, ptr %13, 0
  %16 = insertvalue { ptr, i32 } %15, i32 %14, 1
  resume { ptr, i32 } %16
}