; Function Attrs: mustprogress uwtable
define noundef nonnull ptr @_ZNK16RichDynamicFloat5cloneEv(ptr noundef nonnull align 8 dereferenceable(64) %0) unnamed_addr #1 align 2 personality ptr @__gxx_personality_v0 {
  %2 = tail call noalias noundef nonnull dereferenceable(64) ptr @_Znwm(i64 noundef 64) #11
  invoke void @_ZN13RichParameterC2ERKS_(ptr noundef nonnull align 8 dereferenceable(56) %2, ptr noundef nonnull align 8 dereferenceable(56) %0)
          to label %3 unwind label %7

3:                                                ; preds = %1
  store ptr getelementptr inbounds ({ [8 x ptr] }, ptr @_ZTV16RichDynamicFloat, i64 0, i32 0, i64 2), ptr %2, align 8
  %4 = getelementptr inbounds i8, ptr %2, i64 56
  %5 = getelementptr inbounds i8, ptr %0, i64 56
  %6 = load i64, ptr %5, align 8
  store i64 %6, ptr %4, align 8
  ret ptr %2

7:                                                ; preds = %1
  %8 = landingpad { ptr, i32 }
          cleanup
  tail call void @_ZdlPv(ptr noundef nonnull %2) #10
  resume { ptr, i32 } %8
}